target datalayout = "e-m:e-p270:32:32-p271:32:32-p272:64:64-i64:64-i128:128-f80:128-n8:16:32:64-S128"
target triple = "x86_64-pc-linux-gnu"

%struct.slurm_conf_t = type { i64, ptr, i16, ptr, ptr, ptr, ptr, ptr, i16, ptr, ptr, ptr, ptr, ptr, ptr, ptr, i16, ptr, ptr, ptr, ptr, i16, ptr, ptr, ptr, i64, ptr, ptr, ptr, ptr, i16, ptr, ptr, i16, i32, ptr, i32, ptr, i32, i32, ptr, ptr, i64, i64, ptr, i16, i16, ptr, i32, i32, ptr, i32, ptr, i32, i16, i16, i16, ptr, i16, i16, ptr, ptr, i32, i16, i16, ptr, i32, i16, ptr, ptr, ptr, ptr, i16, ptr, ptr, ptr, ptr, i32, ptr, ptr, ptr, ptr, i16, i16, ptr, i32, i32, i32, i16, i16, ptr, ptr, i16, ptr, ptr, i32, i32, i32, i32, i32, i64, i32, i32, i16, ptr, ptr, i32, ptr, ptr, ptr, i16, i32, ptr, ptr, i16, ptr, ptr, i32, i16, ptr, ptr, ptr, ptr, i32, i32, i16, i16, i32, ptr, i16, ptr, i32, i32, i32, i32, i32, i32, ptr, i16, ptr, ptr, i32, i16, ptr, i32, i16, i16, ptr, ptr, ptr, i16, ptr, ptr, ptr, ptr, i16, i16, ptr, i16, ptr, i16, ptr, i16, ptr, i16, ptr, ptr, ptr, ptr, i16, ptr, ptr, ptr, i32, ptr, i32, ptr, ptr, i16, ptr, ptr, i32, i16, ptr, ptr, i16, i16, ptr, i16, ptr, ptr, ptr, i32, ptr, i16, i16, ptr, ptr, ptr, ptr, ptr, ptr, ptr, ptr, i16, i32, i16, ptr, ptr, ptr, ptr, i32, ptr, ptr, ptr, i16, ptr, ptr, ptr, i16, ptr, i16, ptr, i16, i16, ptr }
%struct.slurmdb_qos_rec_t = type { i64, ptr, i32, i32, i32, i32, i32, i32, ptr, ptr, ptr, ptr, ptr, ptr, i32, double, i32, i32, i32, i32, i32, i32, ptr, ptr, ptr, ptr, ptr, ptr, ptr, ptr, ptr, ptr, ptr, ptr, ptr, ptr, i32, i32, ptr, ptr, ptr, ptr, ptr, i16, i32, i32, ptr, ptr, double, double }
%struct.slurmdb_assoc_rec = type { ptr, ptr, ptr, ptr, ptr, ptr, ptr, i32, i32, i32, i32, i32, ptr, ptr, ptr, ptr, ptr, ptr, i32, i32, i16, ptr, ptr, i32, i32, i32, ptr, ptr, ptr, ptr, ptr, ptr, ptr, ptr, i32, i32, ptr, i32, ptr, i32, ptr, i32, i32, ptr, ptr, ptr }
%struct.slurmdb_assoc_usage = type { i32, ptr, ptr, ptr, ptr, ptr, double, double, i32, ptr, double, ptr, double, i32, x86_fp80, x86_fp80, x86_fp80, ptr, i32, i32, x86_fp80, ptr }
%struct.slurmdb_qos_usage_t = type { i32, ptr, ptr, ptr, ptr, i32, i32, ptr, ptr, double, double, i32, x86_fp80, ptr, ptr }
%struct.slurmdb_used_limits_t = type { i32, ptr, i32, i32, ptr, ptr, ptr, ptr, i32 }
%struct.acct_policy_accrue_t = type { ptr, ptr, i32, ptr, i8, i64, ptr, i32, ptr, ptr }

@slurm_conf = external global %struct.slurm_conf_t, align 8
@.str.117 = private unnamed_addr constant [49 x i8] c"ACCRUE: %s: Adding %d to assoc_ptr %p (%p %p %p)\00", align 1
@__func__._add_accrue_time_internal = private unnamed_addr constant [26 x i8] c"_add_accrue_time_internal\00", align 1
@.str.118 = private unnamed_addr constant [51 x i8] c"ACCRUE: assoc_id %u(%s/%s/%s/%p) added %d count %d\00", align 1

; Function Attrs: nounwind uwtable
define internal void @_add_accrue_time_internal(ptr noundef %0, ptr noundef %1) #0 {
  %3 = alloca ptr, align 8
  %4 = alloca ptr, align 8
  %5 = alloca ptr, align 8
  %6 = alloca ptr, align 8
  %7 = alloca ptr, align 8
  store ptr %0, ptr %3, align 8
  store ptr %1, ptr %4, align 8
  call void @llvm.lifetime.start.p0(i64 8, ptr %5) #8
  %8 = load ptr, ptr %3, align 8
  store ptr %8, ptr %5, align 8
  call void @llvm.lifetime.start.p0(i64 8, ptr %6) #8
  %9 = load ptr, ptr %4, align 8
  store ptr %9, ptr %6, align 8
  call void @llvm.lifetime.start.p0(i64 8, ptr %7) #8
  %10 = load ptr, ptr %6, align 8
  %11 = getelementptr inbounds nuw %struct.acct_policy_accrue_t, ptr %10, i32 0, i32 1
  %12 = load ptr, ptr %11, align 8
  store ptr %12, ptr %7, align 8
  br label %13

13:                                               ; preds = %2
  %14 = load i64, ptr getelementptr inbounds nuw (%struct.slurm_conf_t, ptr @slurm_conf, i32 0, i32 42), align 8
  %15 = and i64 %14, 1125899906842624
  %16 = icmp ne i64 %15, 0
  br i1 %16, label %17, label %36

17:                                               ; preds = %13
  br label %18

18:                                               ; preds = %17
  %19 = call i32 @get_log_level()
  %20 = icmp sge i32 %19, 4
  br i1 %20, label %21, label %33

21:                                               ; preds = %18
  %22 = load ptr, ptr %6, align 8
  %23 = getelementptr inbounds nuw %struct.acct_policy_accrue_t, ptr %22, i32 0, i32 2
  %24 = load i32, ptr %23, align 8
  %25 = load ptr, ptr %7, align 8
  %26 = load ptr, ptr %5, align 8
  %27 = load ptr, ptr %6, align 8
  %28 = getelementptr inbounds nuw %struct.acct_policy_accrue_t, ptr %27, i32 0, i32 8
  %29 = load ptr, ptr %28, align 8
  %30 = load ptr, ptr %6, align 8
  %31 = getelementptr inbounds nuw %struct.acct_policy_accrue_t, ptr %30, i32 0, i32 9
  %32 = load ptr, ptr %31, align 8
  call void (i32, ptr, ...) @log_var(i32 noundef 4, ptr noundef @.str.117, ptr noundef @__func__._add_accrue_time_internal, i32 noundef %24, ptr noundef %25, ptr noundef %26, ptr noundef %29, ptr noundef %32)
  br label %33

33:                                               ; preds = %21, %18
  br label %34

34:                                               ; preds = %33
  br label %35

35:                                               ; preds = %34
  br label %36

36:                                               ; preds = %35, %13
  br label %37

37:                                               ; preds = %36
  br label %38

38:                                               ; preds = %37
  %39 = load ptr, ptr %5, align 8
  %40 = icmp ne ptr %39, null
  br i1 %40, label %41, label %51

41:                                               ; preds = %38
  %42 = load ptr, ptr %6, align 8
  %43 = getelementptr inbounds nuw %struct.acct_policy_accrue_t, ptr %42, i32 0, i32 2
  %44 = load i32, ptr %43, align 8
  %45 = load ptr, ptr %5, align 8
  %46 = getelementptr inbounds nuw %struct.slurmdb_qos_rec_t, ptr %45, i32 0, i32 47
  %47 = load ptr, ptr %46, align 8
  %48 = getelementptr inbounds nuw %struct.slurmdb_qos_usage_t, ptr %47, i32 0, i32 0
  %49 = load i32, ptr %48, align 16
  %50 = add i32 %49, %44
  store i32 %50, ptr %48, align 16
  br label %51

51:                                               ; preds = %41, %38
  %52 = load ptr, ptr %6, align 8
  %53 = getelementptr inbounds nuw %struct.acct_policy_accrue_t, ptr %52, i32 0, i32 8
  %54 = load ptr, ptr %53, align 8
  %55 = icmp ne ptr %54, null
  br i1 %55, label %56, label %66

56:                                               ; preds = %51
  %57 = load ptr, ptr %6, align 8
  %58 = getelementptr inbounds nuw %struct.acct_policy_accrue_t, ptr %57, i32 0, i32 2
  %59 = load i32, ptr %58, align 8
  %60 = load ptr, ptr %6, align 8
  %61 = getelementptr inbounds nuw %struct.acct_policy_accrue_t, ptr %60, i32 0, i32 8
  %62 = load ptr, ptr %61, align 8
  %63 = getelementptr inbounds nuw %struct.slurmdb_used_limits_t, ptr %62, i32 0, i32 0
  %64 = load i32, ptr %63, align 8
  %65 = add i32 %64, %59
  store i32 %65, ptr %63, align 8
  br label %66

66:                                               ; preds = %56, %51
  %67 = load ptr, ptr %6, align 8
  %68 = getelementptr inbounds nuw %struct.acct_policy_accrue_t, ptr %67, i32 0, i32 9
  %69 = load ptr, ptr %68, align 8
  %70 = icmp ne ptr %69, null
  br i1 %70, label %71, label %81

71:                                               ; preds = %66
  %72 = load ptr, ptr %6, align 8
  %73 = getelementptr inbounds nuw %struct.acct_policy_accrue_t, ptr %72, i32 0, i32 2
  %74 = load i32, ptr %73, align 8
  %75 = load ptr, ptr %6, align 8
  %76 = getelementptr inbounds nuw %struct.acct_policy_accrue_t, ptr %75, i32 0, i32 9
  %77 = load ptr, ptr %76, align 8
  %78 = getelementptr inbounds nuw %struct.slurmdb_used_limits_t, ptr %77, i32 0, i32 0
  %79 = load i32, ptr %78, align 8
  %80 = add i32 %79, %74
  store i32 %80, ptr %78, align 8
  br label %81

81:                                               ; preds = %71, %66
  br label %82

82:                                               ; preds = %123, %81
  %83 = load ptr, ptr %7, align 8
  %84 = icmp ne ptr %83, null
  br i1 %84, label %85, label %138

85:                                               ; preds = %82
  br label %86

86:                                               ; preds = %85
  %87 = load i64, ptr getelementptr inbounds nuw (%struct.slurm_conf_t, ptr @slurm_conf, i32 0, i32 42), align 8
  %88 = and i64 %87, 1125899906842624
  %89 = icmp ne i64 %88, 0
  br i1 %89, label %90, label %121

90:                                               ; preds = %86
  br label %91

91:                                               ; preds = %90
  %92 = call i32 @get_log_level()
  %93 = icmp sge i32 %92, 4
  br i1 %93, label %94, label %118

94:                                               ; preds = %91
  %95 = load ptr, ptr %7, align 8
  %96 = getelementptr inbounds nuw %struct.slurmdb_assoc_rec, ptr %95, i32 0, i32 19
  %97 = load i32, ptr %96, align 4
  %98 = load ptr, ptr %7, align 8
  %99 = getelementptr inbounds nuw %struct.slurmdb_assoc_rec, ptr %98, i32 0, i32 1
  %100 = load ptr, ptr %99, align 8
  %101 = load ptr, ptr %7, align 8
  %102 = getelementptr inbounds nuw %struct.slurmdb_assoc_rec, ptr %101, i32 0, i32 44
  %103 = load ptr, ptr %102, align 8
  %104 = load ptr, ptr %7, align 8
  %105 = getelementptr inbounds nuw %struct.slurmdb_assoc_rec, ptr %104, i32 0, i32 38
  %106 = load ptr, ptr %105, align 8
  %107 = load ptr, ptr %7, align 8
  %108 = getelementptr inbounds nuw %struct.slurmdb_assoc_rec, ptr %107, i32 0, i32 43
  %109 = load ptr, ptr %108, align 8
  %110 = load ptr, ptr %6, align 8
  %111 = getelementptr inbounds nuw %struct.acct_policy_accrue_t, ptr %110, i32 0, i32 2
  %112 = load i32, ptr %111, align 8
  %113 = load ptr, ptr %7, align 8
  %114 = getelementptr inbounds nuw %struct.slurmdb_assoc_rec, ptr %113, i32 0, i32 43
  %115 = load ptr, ptr %114, align 8
  %116 = getelementptr inbounds nuw %struct.slurmdb_assoc_usage, ptr %115, i32 0, i32 0
  %117 = load i32, ptr %116, align 16
  call void (i32, ptr, ...) @log_var(i32 noundef 4, ptr noundef @.str.118, i32 noundef %97, ptr noundef %100, ptr noundef %103, ptr noundef %106, ptr noundef %109, i32 noundef %112, i32 noundef %117)
  br label %118

118:                                              ; preds = %94, %91
  br label %119

119:                                              ; preds = %118
  br label %120

120:                                              ; preds = %119
  br label %121

121:                                              ; preds = %120, %86
  br label %122

122:                                              ; preds = %121
  br label %123

123:                                              ; preds = %122
  %124 = load ptr, ptr %6, align 8
  %125 = getelementptr inbounds nuw %struct.acct_policy_accrue_t, ptr %124, i32 0, i32 2
  %126 = load i32, ptr %125, align 8
  %127 = load ptr, ptr %7, align 8
  %128 = getelementptr inbounds nuw %struct.slurmdb_assoc_rec, ptr %127, i32 0, i32 43
  %129 = load ptr, ptr %128, align 8
  %130 = getelementptr inbounds nuw %struct.slurmdb_assoc_usage, ptr %129, i32 0, i32 0
  %131 = load i32, ptr %130, align 16
  %132 = add i32 %131, %126
  store i32 %132, ptr %130, align 16
  %133 = load ptr, ptr %7, align 8
  %134 = getelementptr inbounds nuw %struct.slurmdb_assoc_rec, ptr %133, i32 0, i32 43
  %135 = load ptr, ptr %134, align 8
  %136 = getelementptr inbounds nuw %struct.slurmdb_assoc_usage, ptr %135, i32 0, i32 9
  %137 = load ptr, ptr %136, align 8
  store ptr %137, ptr %7, align 8
  br label %82, !llvm.loop !47

138:                                              ; preds = %82
  call void @llvm.lifetime.end.p0(i64 8, ptr %7) #8
  call void @llvm.lifetime.end.p0(i64 8, ptr %6) #8
  call void @llvm.lifetime.end.p0(i64 8, ptr %5) #8
  ret void
}