; Function Attrs: nounwind uwtable
define internal fastcc void @_add_accrue_time_internal(ptr noundef %0, ptr noundef nonnull readonly captures(none) %1) unnamed_addr #0 {
  %3 = getelementptr inbounds nuw i8, ptr %1, i64 8
  %4 = load ptr, ptr %3, align 8
  %5 = load i64, ptr getelementptr inbounds nuw (i8, ptr @slurm_conf, i64 320), align 8
  %6 = and i64 %5, 1125899906842624
  %.not = icmp eq i64 %6, 0
  br i1 %.not, label %17, label %7

7:                                                ; preds = %2
  %8 = tail call i32 @get_log_level() #15
  %9 = icmp sgt i32 %8, 3
  br i1 %9, label %10, label %17

10:                                               ; preds = %7
  %11 = getelementptr inbounds nuw i8, ptr %1, i64 16
  %12 = load i32, ptr %11, align 8
  %13 = getelementptr inbounds nuw i8, ptr %1, i64 64
  %14 = load ptr, ptr %13, align 8
  %15 = getelementptr inbounds nuw i8, ptr %1, i64 72
  %16 = load ptr, ptr %15, align 8
  tail call void (i32, ptr, ...) @log_var(i32 noundef 4, ptr noundef nonnull @.str.117, ptr noundef nonnull @__func__._add_accrue_time_internal, i32 noundef %12, ptr noundef %4, ptr noundef %0, ptr noundef %14, ptr noundef %16) #15
  br label %17

17:                                               ; preds = %7, %10, %2
  %.not31 = icmp eq ptr %0, null
  br i1 %.not31, label %25, label %18

18:                                               ; preds = %17
  %19 = getelementptr inbounds nuw i8, ptr %1, i64 16
  %20 = load i32, ptr %19, align 8
  %21 = getelementptr inbounds nuw i8, ptr %0, i64 312
  %22 = load ptr, ptr %21, align 8
  %23 = load i32, ptr %22, align 16
  %24 = add i32 %23, %20
  store i32 %24, ptr %22, align 16
  br label %25

25:                                               ; preds = %18, %17
  %26 = getelementptr inbounds nuw i8, ptr %1, i64 64
  %27 = load ptr, ptr %26, align 8
  %.not32 = icmp eq ptr %27, null
  br i1 %.not32, label %33, label %28

28:                                               ; preds = %25
  %29 = getelementptr inbounds nuw i8, ptr %1, i64 16
  %30 = load i32, ptr %29, align 8
  %31 = load i32, ptr %27, align 8
  %32 = add i32 %31, %30
  store i32 %32, ptr %27, align 8
  br label %33

33:                                               ; preds = %28, %25
  %34 = getelementptr inbounds nuw i8, ptr %1, i64 72
  %35 = load ptr, ptr %34, align 8
  %.not33 = icmp eq ptr %35, null
  br i1 %.not33, label %41, label %36

36:                                               ; preds = %33
  %37 = getelementptr inbounds nuw i8, ptr %1, i64 16
  %38 = load i32, ptr %37, align 8
  %39 = load i32, ptr %35, align 8
  %40 = add i32 %39, %38
  store i32 %40, ptr %35, align 8
  br label %41

41:                                               ; preds = %36, %33
  %.not3436 = icmp eq ptr %4, null
  br i1 %.not3436, label %._crit_edge, label %.lr.ph

.lr.ph:                                           ; preds = %41
  %42 = getelementptr inbounds nuw i8, ptr %1, i64 16
  br label %43

43:                                               ; preds = %.lr.ph, %62
  %.037 = phi ptr [ %4, %.lr.ph ], [ %70, %62 ]
  %44 = load i64, ptr getelementptr inbounds nuw (i8, ptr @slurm_conf, i64 320), align 8
  %45 = and i64 %44, 1125899906842624
  %.not35 = icmp eq i64 %45, 0
  br i1 %.not35, label %62, label %46

46:                                               ; preds = %43
  %47 = tail call i32 @get_log_level() #15
  %48 = icmp sgt i32 %47, 3
  br i1 %48, label %49, label %62

49:                                               ; preds = %46
  %50 = getelementptr inbounds nuw i8, ptr %.037, i64 132
  %51 = load i32, ptr %50, align 4
  %52 = getelementptr inbounds nuw i8, ptr %.037, i64 8
  %53 = load ptr, ptr %52, align 8
  %54 = getelementptr inbounds nuw i8, ptr %.037, i64 304
  %55 = load ptr, ptr %54, align 8
  %56 = getelementptr inbounds nuw i8, ptr %.037, i64 264
  %57 = load ptr, ptr %56, align 8
  %58 = getelementptr inbounds nuw i8, ptr %.037, i64 296
  %59 = load ptr, ptr %58, align 8
  %60 = load i32, ptr %42, align 8
  %61 = load i32, ptr %59, align 16
  tail call void (i32, ptr, ...) @log_var(i32 noundef 4, ptr noundef nonnull @.str.118, i32 noundef %51, ptr noundef %53, ptr noundef %55, ptr noundef %57, ptr noundef nonnull %59, i32 noundef %60, i32 noundef %61) #15
  br label %62

62:                                               ; preds = %46, %49, %43
  %63 = load i32, ptr %42, align 8
  %64 = getelementptr inbounds nuw i8, ptr %.037, i64 296
  %65 = load ptr, ptr %64, align 8
  %66 = load i32, ptr %65, align 16
  %67 = add i32 %66, %63
  store i32 %67, ptr %65, align 16
  %68 = load ptr, ptr %64, align 8
  %69 = getelementptr inbounds nuw i8, ptr %68, i64 72
  %70 = load ptr, ptr %69, align 8
  %.not34 = icmp eq ptr %70, null
  br i1 %.not34, label %._crit_edge, label %43, !llvm.loop !48

._crit_edge:                                      ; preds = %62, %41
  ret void
}